; ModuleID = 'source-C-CXX/41/115.c'
source_filename = "source-C-CXX/41/115.c"
target datalayout = "e-m:e-p270:32:32-p271:32:32-p272:64:64-i64:64-f80:128-n8:16:32:64-S128"
target triple = "x86_64-pc-linux-gnu"

@.str = private unnamed_addr constant [3 x i8] c"%d\00", align 1
@.str.1 = private unnamed_addr constant [4 x i8] c"%d \00", align 1
@.str.2 = private unnamed_addr constant [4 x i8] c" %d\00", align 1

; Function Attrs: nofree nounwind sspstrong uwtable
define dso_local i32 @main() local_unnamed_addr #0 {
  %1 = alloca i32, align 4
  %2 = alloca i32, align 4
  %3 = alloca [100001 x i32], align 16
  %4 = bitcast i32* %1 to i8*
  call void @llvm.lifetime.start.p0i8(i64 4, i8* nonnull %4) #3
  %5 = bitcast i32* %2 to i8*
  call void @llvm.lifetime.start.p0i8(i64 4, i8* nonnull %5) #3
  %6 = bitcast [100001 x i32]* %3 to i8*
  call void @llvm.lifetime.start.p0i8(i64 400004, i8* nonnull %6) #3
  %7 = call i32 (i8*, ...) @__isoc99_scanf(i8* getelementptr inbounds ([3 x i8], [3 x i8]* @.str, i64 0, i64 0), i32* nonnull %1)
  %8 = load i32, i32* %1, align 4, !tbaa !5
  %9 = icmp slt i32 %8, 1
  br i1 %9, label %18, label %10

10:                                               ; preds = %0, %10
  %11 = phi i64 [ %14, %10 ], [ 1, %0 ]
  %12 = getelementptr inbounds [100001 x i32], [100001 x i32]* %3, i64 0, i64 %11
  %13 = call i32 (i8*, ...) @__isoc99_scanf(i8* getelementptr inbounds ([4 x i8], [4 x i8]* @.str.1, i64 0, i64 0), i32* nonnull %12)
  %14 = add nuw nsw i64 %11, 1
  %15 = load i32, i32* %1, align 4, !tbaa !5
  %16 = sext i32 %15 to i64
  %17 = icmp slt i64 %11, %16
  br i1 %17, label %10, label %18, !llvm.loop !9

18:                                               ; preds = %10, %0
  %19 = call i32 (i8*, ...) @__isoc99_scanf(i8* getelementptr inbounds ([3 x i8], [3 x i8]* @.str, i64 0, i64 0), i32* nonnull %2)
  %20 = load i32, i32* %1, align 4, !tbaa !5
  %21 = icmp slt i32 %20, 1
  br i1 %21, label %73, label %28

22:                                               ; preds = %68
  %23 = trunc i64 %70 to i32
  br label %24

24:                                               ; preds = %22, %47
  %25 = phi i32 [ %54, %47 ], [ %69, %22 ]
  %26 = phi i32 [ %53, %47 ], [ %23, %22 ]
  %27 = icmp sgt i32 %26, %25
  br i1 %27, label %73, label %28, !llvm.loop !11

28:                                               ; preds = %18, %24
  %29 = phi i32 [ %26, %24 ], [ 1, %18 ]
  %30 = load i32, i32* %2, align 4, !tbaa !5
  %31 = sext i32 %29 to i64
  %32 = getelementptr inbounds [100001 x i32], [100001 x i32]* %3, i64 0, i64 %31
  %33 = load i32, i32* %32, align 4, !tbaa !5
  br label %34

34:                                               ; preds = %28, %39
  %35 = phi i32 [ %33, %28 ], [ %30, %39 ]
  %36 = phi i64 [ %31, %28 ], [ %40, %39 ]
  %37 = phi i32 [ %29, %28 ], [ %41, %39 ]
  %38 = icmp eq i32 %35, %30
  br i1 %38, label %39, label %45

39:                                               ; preds = %34
  %40 = add i64 %36, 1
  %41 = add nsw i32 %37, 1
  %42 = getelementptr inbounds [100001 x i32], [100001 x i32]* %3, i64 0, i64 %40
  %43 = load i32, i32* %42, align 4, !tbaa !5
  %44 = icmp eq i32 %43, %30
  br i1 %44, label %34, label %47, !llvm.loop !12

45:                                               ; preds = %34
  %46 = trunc i64 %36 to i32
  br label %47

47:                                               ; preds = %39, %45
  %48 = phi i32 [ %46, %45 ], [ %41, %39 ]
  %49 = sext i32 %48 to i64
  %50 = getelementptr inbounds [100001 x i32], [100001 x i32]* %3, i64 0, i64 %49
  %51 = load i32, i32* %50, align 4, !tbaa !5
  %52 = call i32 (i8*, ...) @printf(i8* nonnull dereferenceable(1) getelementptr inbounds ([3 x i8], [3 x i8]* @.str, i64 0, i64 0), i32 %51)
  %53 = add nsw i32 %48, 1
  %54 = load i32, i32* %1, align 4, !tbaa !5
  %55 = icmp slt i32 %48, %54
  br i1 %55, label %56, label %24

56:                                               ; preds = %47
  %57 = add nsw i64 %49, 1
  br label %58

58:                                               ; preds = %56, %68
  %59 = phi i32 [ %54, %56 ], [ %69, %68 ]
  %60 = phi i64 [ %57, %56 ], [ %70, %68 ]
  %61 = getelementptr inbounds [100001 x i32], [100001 x i32]* %3, i64 0, i64 %60
  %62 = load i32, i32* %61, align 4, !tbaa !5
  %63 = load i32, i32* %2, align 4, !tbaa !5
  %64 = icmp eq i32 %62, %63
  br i1 %64, label %68, label %65

65:                                               ; preds = %58
  %66 = call i32 (i8*, ...) @printf(i8* nonnull dereferenceable(1) getelementptr inbounds ([4 x i8], [4 x i8]* @.str.2, i64 0, i64 0), i32 %62)
  %67 = load i32, i32* %1, align 4, !tbaa !5
  br label %68

68:                                               ; preds = %58, %65
  %69 = phi i32 [ %59, %58 ], [ %67, %65 ]
  %70 = add nsw i64 %60, 1
  %71 = sext i32 %69 to i64
  %72 = icmp slt i64 %60, %71
  br i1 %72, label %58, label %22, !llvm.loop !13

73:                                               ; preds = %24, %18
  call void @llvm.lifetime.end.p0i8(i64 400004, i8* nonnull %6) #3
  call void @llvm.lifetime.end.p0i8(i64 4, i8* nonnull %5) #3
  call void @llvm.lifetime.end.p0i8(i64 4, i8* nonnull %4) #3
  ret i32 0
}

; Function Attrs: argmemonly mustprogress nofree nosync nounwind willreturn
declare void @llvm.lifetime.start.p0i8(i64 immarg, i8* nocapture) #1

; Function Attrs: nofree nounwind
declare noundef i32 @__isoc99_scanf(i8* nocapture noundef readonly, ...) local_unnamed_addr #2

; Function Attrs: nofree nounwind
declare noundef i32 @printf(i8* nocapture noundef readonly, ...) local_unnamed_addr #2

; Function Attrs: argmemonly mustprogress nofree nosync nounwind willreturn
declare void @llvm.lifetime.end.p0i8(i64 immarg, i8* nocapture) #1


!llvm.module.flags = !{!0, !1, !2, !3}
!llvm.ident = !{!4}

!0 = !{i32 1, !"wchar_size", i32 4}
!1 = !{i32 7, !"PIC Level", i32 2}
!2 = !{i32 7, !"PIE Level", i32 2}
!3 = !{i32 7, !"uwtable", i32 1}
!4 = !{!"clang version 13.0.0"}
!5 = !{!6, !6, i64 0}
!6 = !{!"int", !7, i64 0}
!7 = !{!"omnipotent char", !8, i64 0}
!8 = !{!"Simple C/C++ TBAA"}
!9 = distinct !{!9, !10}
!10 = !{!"llvm.loop.mustprogress"}
!11 = distinct !{!11, !10}
!12 = distinct !{!12, !10}
!13 = distinct !{!13, !10}
